; Function Attrs: mustprogress uwtable
define void @_ZN3net22SpdyHeadersBlockParser11ParseLengthEPNS_24SpdyPrefixedBufferReaderEPj(ptr noundef nonnull writeonly align 8 captures(none) dereferenceable(108) %0, ptr noundef nonnull %1, ptr noundef writeonly captures(none) %2) local_unnamed_addr #0 align 2 {
  %4 = alloca [4 x i8], align 4
  call void @llvm.lifetime.start.p0(i64 4, ptr nonnull %4) #8
  store i32 0, ptr %4, align 4
  %5 = call noundef zeroext i1 @_ZN3net24SpdyPrefixedBufferReader5ReadNEmPc(ptr noundef nonnull align 8 dereferenceable(32) %1, i64 noundef 4, ptr noundef nonnull %4)
  br i1 %5, label %8, label %6

6:                                                ; preds = %3
  %7 = getelementptr inbounds nuw i8, ptr %0, i64 100
  store i32 1, ptr %7, align 4, !tbaa !29
  br label %11

8:                                                ; preds = %3
  %9 = load i32, ptr %4, align 4, !tbaa !33
  %10 = call noundef i32 @llvm.bswap.i32(i32 %9)
  store i32 %10, ptr %2, align 4, !tbaa !33
  br label %11

11:                                               ; preds = %8, %6
  call void @llvm.lifetime.end.p0(i64 4, ptr nonnull %4) #8
  ret void
}